; ModuleID = '31/2037.c'
source_filename = "31/2037.c"
target datalayout = "e-m:e-p270:32:32-p271:32:32-p272:64:64-i64:64-f80:128-n8:16:32:64-S128"
target triple = "x86_64-pc-linux-gnu"

%struct.student = type { [100 x i8], [100 x i8], i8, i32, [100 x i8], [100 x i8], %struct.student*, %struct.student* }

@.str = private unnamed_addr constant [3 x i8] c"%s\00", align 1
@.str.1 = private unnamed_addr constant [15 x i8] c"%s %c %d %s %s\00", align 1
@.str.2 = private unnamed_addr constant [4 x i8] c"end\00", align 1
@.str.3 = private unnamed_addr constant [19 x i8] c"%s %s %c %d %s %s\0A\00", align 1

; Function Attrs: noinline nounwind uwtable
define dso_local i32 @main() #0 {
  %1 = alloca i32, align 4
  %2 = alloca %struct.student*, align 8
  %3 = alloca %struct.student*, align 8
  %4 = alloca %struct.student*, align 8
  %5 = alloca [10 x i8], align 1
  store i32 0, i32* %1, align 4
  %6 = call noalias i8* @malloc(i64 424) #4
  %7 = bitcast i8* %6 to %struct.student*
  store %struct.student* %7, %struct.student** %2, align 8
  %8 = load %struct.student*, %struct.student** %2, align 8
  %9 = getelementptr inbounds %struct.student, %struct.student* %8, i32 0, i32 6
  store %struct.student* null, %struct.student** %9, align 8
  %10 = getelementptr inbounds [10 x i8], [10 x i8]* %5, i64 0, i64 0
  %11 = call i32 (i8*, ...) @__isoc99_scanf(i8* getelementptr inbounds ([3 x i8], [3 x i8]* @.str, i64 0, i64 0), i8* %10)
  %12 = load %struct.student*, %struct.student** %2, align 8
  store %struct.student* %12, %struct.student** %4, align 8
  br label %13

13:                                               ; preds = %45, %0
  %14 = call noalias i8* @malloc(i64 424) #4
  %15 = bitcast i8* %14 to %struct.student*
  store %struct.student* %15, %struct.student** %3, align 8
  %16 = load %struct.student*, %struct.student** %3, align 8
  %17 = getelementptr inbounds %struct.student, %struct.student* %16, i32 0, i32 0
  %18 = getelementptr inbounds [100 x i8], [100 x i8]* %17, i64 0, i64 0
  %19 = getelementptr inbounds [10 x i8], [10 x i8]* %5, i64 0, i64 0
  %20 = call i8* @strcpy(i8* %18, i8* %19) #4
  %21 = load %struct.student*, %struct.student** %3, align 8
  %22 = getelementptr inbounds %struct.student, %struct.student* %21, i32 0, i32 1
  %23 = getelementptr inbounds [100 x i8], [100 x i8]* %22, i64 0, i64 0
  %24 = load %struct.student*, %struct.student** %3, align 8
  %25 = getelementptr inbounds %struct.student, %struct.student* %24, i32 0, i32 2
  %26 = load %struct.student*, %struct.student** %3, align 8
  %27 = getelementptr inbounds %struct.student, %struct.student* %26, i32 0, i32 3
  %28 = load %struct.student*, %struct.student** %3, align 8
  %29 = getelementptr inbounds %struct.student, %struct.student* %28, i32 0, i32 4
  %30 = load %struct.student*, %struct.student** %3, align 8
  %31 = getelementptr inbounds %struct.student, %struct.student* %30, i32 0, i32 5
  %32 = getelementptr inbounds [100 x i8], [100 x i8]* %31, i64 0, i64 0
  %33 = call i32 (i8*, ...) @__isoc99_scanf(i8* getelementptr inbounds ([15 x i8], [15 x i8]* @.str.1, i64 0, i64 0), i8* %23, i8* %25, i32* %27, [100 x i8]* %29, i8* %32)
  %34 = load %struct.student*, %struct.student** %4, align 8
  %35 = load %struct.student*, %struct.student** %3, align 8
  %36 = getelementptr inbounds %struct.student, %struct.student* %35, i32 0, i32 6
  store %struct.student* %34, %struct.student** %36, align 8
  %37 = load %struct.student*, %struct.student** %3, align 8
  %38 = load %struct.student*, %struct.student** %4, align 8
  %39 = getelementptr inbounds %struct.student, %struct.student* %38, i32 0, i32 7
  store %struct.student* %37, %struct.student** %39, align 8
  %40 = load %struct.student*, %struct.student** %4, align 8
  %41 = getelementptr inbounds %struct.student, %struct.student* %40, i32 0, i32 7
  %42 = load %struct.student*, %struct.student** %41, align 8
  store %struct.student* %42, %struct.student** %4, align 8
  %43 = getelementptr inbounds [10 x i8], [10 x i8]* %5, i64 0, i64 0
  %44 = call i32 (i8*, ...) @__isoc99_scanf(i8* getelementptr inbounds ([3 x i8], [3 x i8]* @.str, i64 0, i64 0), i8* %43)
  br label %45

45:                                               ; preds = %13
  %46 = getelementptr inbounds [10 x i8], [10 x i8]* %5, i64 0, i64 0
  %47 = call i32 @strcmp(i8* %46, i8* getelementptr inbounds ([4 x i8], [4 x i8]* @.str.2, i64 0, i64 0)) #5
  %48 = icmp ne i32 %47, 0
  br i1 %48, label %13, label %49

49:                                               ; preds = %45
  %50 = load %struct.student*, %struct.student** %4, align 8
  %51 = getelementptr inbounds %struct.student, %struct.student* %50, i32 0, i32 7
  store %struct.student* null, %struct.student** %51, align 8
  %52 = load %struct.student*, %struct.student** %2, align 8
  store %struct.student* %52, %struct.student** %3, align 8
  br label %53

53:                                               ; preds = %58, %49
  %54 = load %struct.student*, %struct.student** %3, align 8
  %55 = getelementptr inbounds %struct.student, %struct.student* %54, i32 0, i32 7
  %56 = load %struct.student*, %struct.student** %55, align 8
  %57 = icmp ne %struct.student* %56, null
  br i1 %57, label %58, label %62

58:                                               ; preds = %53
  %59 = load %struct.student*, %struct.student** %3, align 8
  %60 = getelementptr inbounds %struct.student, %struct.student* %59, i32 0, i32 7
  %61 = load %struct.student*, %struct.student** %60, align 8
  store %struct.student* %61, %struct.student** %3, align 8
  br label %53

62:                                               ; preds = %53
  br label %63

63:                                               ; preds = %67, %62
  %64 = load %struct.student*, %struct.student** %3, align 8
  %65 = load %struct.student*, %struct.student** %2, align 8
  %66 = icmp ne %struct.student* %64, %65
  br i1 %66, label %67, label %91

67:                                               ; preds = %63
  %68 = load %struct.student*, %struct.student** %3, align 8
  %69 = getelementptr inbounds %struct.student, %struct.student* %68, i32 0, i32 0
  %70 = getelementptr inbounds [100 x i8], [100 x i8]* %69, i64 0, i64 0
  %71 = load %struct.student*, %struct.student** %3, align 8
  %72 = getelementptr inbounds %struct.student, %struct.student* %71, i32 0, i32 1
  %73 = getelementptr inbounds [100 x i8], [100 x i8]* %72, i64 0, i64 0
  %74 = load %struct.student*, %struct.student** %3, align 8
  %75 = getelementptr inbounds %struct.student, %struct.student* %74, i32 0, i32 2
  %76 = load i8, i8* %75, align 8
  %77 = sext i8 %76 to i32
  %78 = load %struct.student*, %struct.student** %3, align 8
  %79 = getelementptr inbounds %struct.student, %struct.student* %78, i32 0, i32 3
  %80 = load i32, i32* %79, align 4
  %81 = load %struct.student*, %struct.student** %3, align 8
  %82 = getelementptr inbounds %struct.student, %struct.student* %81, i32 0, i32 4
  %83 = getelementptr inbounds [100 x i8], [100 x i8]* %82, i64 0, i64 0
  %84 = load %struct.student*, %struct.student** %3, align 8
  %85 = getelementptr inbounds %struct.student, %struct.student* %84, i32 0, i32 5
  %86 = getelementptr inbounds [100 x i8], [100 x i8]* %85, i64 0, i64 0
  %87 = call i32 (i8*, ...) @printf(i8* getelementptr inbounds ([19 x i8], [19 x i8]* @.str.3, i64 0, i64 0), i8* %70, i8* %73, i32 %77, i32 %80, i8* %83, i8* %86)
  %88 = load %struct.student*, %struct.student** %3, align 8
  %89 = getelementptr inbounds %struct.student, %struct.student* %88, i32 0, i32 6
  %90 = load %struct.student*, %struct.student** %89, align 8
  store %struct.student* %90, %struct.student** %3, align 8
  br label %63

91:                                               ; preds = %63
  %92 = load i32, i32* %1, align 4
  ret i32 %92
}

; Function Attrs: nounwind
declare dso_local noalias i8* @malloc(i64) #1

declare dso_local i32 @__isoc99_scanf(i8*, ...) #2

; Function Attrs: nounwind
declare dso_local i8* @strcpy(i8*, i8*) #1

; Function Attrs: nounwind readonly
declare dso_local i32 @strcmp(i8*, i8*) #3

declare dso_local i32 @printf(i8*, ...) #2


!llvm.module.flags = !{!0}
!llvm.ident = !{!1}

!0 = !{i32 1, !"wchar_size", i32 4}
!1 = !{!"clang version 10.0.0-4ubuntu1 "}
